; Function Attrs: mustprogress nofree norecurse nosync nounwind willreturn memory(none) uwtable
define noundef i32 @_ZN8facebook5velox4util16getMaxDayOfMonthEii(i32 noundef %year, i32 noundef %month) local_unnamed_addr #0 {
entry:
  %0 = and i32 %year, 3
  %cmp.i = icmp eq i32 %0, 0
  br i1 %cmp.i, label %land.rhs.i, label %_ZN8facebook5velox4util10isLeapYearEi.exit.thread6

_ZN8facebook5velox4util10isLeapYearEi.exit.thread6: ; preds = %entry
  %idxprom7 = sext i32 %month to i64
  %arrayidx29 = getelementptr inbounds [13 x i32], ptr @_ZN8facebook5velox4utilL11kNormalDaysE, i64 0, i64 %idxprom7
  br label %1

land.rhs.i:                                       ; preds = %entry
  %rem1.i = srem i32 %year, 100
  %cmp2.not.i = icmp eq i32 %rem1.i, 0
  br i1 %cmp2.not.i, label %_ZN8facebook5velox4util10isLeapYearEi.exit, label %_ZN8facebook5velox4util10isLeapYearEi.exit.thread

_ZN8facebook5velox4util10isLeapYearEi.exit.thread: ; preds = %land.rhs.i
  %idxprom2 = sext i32 %month to i64
  %arrayidx3 = getelementptr inbounds [13 x i32], ptr @_ZN8facebook5velox4utilL9kLeapDaysE, i64 0, i64 %idxprom2
  br label %1

_ZN8facebook5velox4util10isLeapYearEi.exit:       ; preds = %land.rhs.i
  %rem3.i = srem i32 %year, 400
  %cmp4.i = icmp eq i32 %rem3.i, 0
  %idxprom = sext i32 %month to i64
  %arrayidx = getelementptr inbounds [13 x i32], ptr @_ZN8facebook5velox4utilL9kLeapDaysE, i64 0, i64 %idxprom
  %arrayidx2 = getelementptr inbounds [13 x i32], ptr @_ZN8facebook5velox4utilL11kNormalDaysE, i64 0, i64 %idxprom
  %spec.select = select i1 %cmp4.i, ptr %arrayidx, ptr %arrayidx2
  br label %1

1:                                                ; preds = %_ZN8facebook5velox4util10isLeapYearEi.exit, %_ZN8facebook5velox4util10isLeapYearEi.exit.thread, %_ZN8facebook5velox4util10isLeapYearEi.exit.thread6
  %2 = phi ptr [ %arrayidx29, %_ZN8facebook5velox4util10isLeapYearEi.exit.thread6 ], [ %arrayidx3, %_ZN8facebook5velox4util10isLeapYearEi.exit.thread ], [ %spec.select, %_ZN8facebook5velox4util10isLeapYearEi.exit ]
  %cond = load i32, ptr %2, align 4
  ret i32 %cond
}